; Function Attrs: nounwind uwtable
define internal fastcc range(i32 -1094995529, 1) i32 @read_bfraction(ptr noundef captures(none) %0, ptr noundef captures(none) %1) unnamed_addr #0 {
  %3 = getelementptr inbounds nuw i8, ptr %1, i64 16
  %4 = load i32, ptr %3, align 8, !tbaa !12
  %5 = getelementptr inbounds nuw i8, ptr %1, i64 24
  %6 = load i32, ptr %5, align 8, !tbaa !14
  %7 = load ptr, ptr %1, align 8, !tbaa !15
  %8 = lshr i32 %4, 3
  %9 = zext nneg i32 %8 to i64
  %10 = getelementptr inbounds nuw i8, ptr %7, i64 %9
  %11 = load i32, ptr %10, align 1, !tbaa !11
  %12 = tail call i32 @llvm.bswap.i32(i32 %11)
  %13 = and i32 %4, 7
  %14 = shl i32 %12, %13
  %15 = lshr i32 %14, 29
  %16 = add i32 %4, 3
  %17 = tail call i32 @llvm.umin.i32(i32 %6, i32 %16)
  store i32 %17, ptr %3, align 8, !tbaa !12
  %18 = icmp eq i32 %15, 7
  br i1 %18, label %19, label %.thread

19:                                               ; preds = %2
  %20 = lshr i32 %17, 3
  %21 = zext nneg i32 %20 to i64
  %22 = getelementptr inbounds nuw i8, ptr %7, i64 %21
  %23 = load i32, ptr %22, align 1, !tbaa !11
  %24 = tail call i32 @llvm.bswap.i32(i32 %23)
  %25 = and i32 %17, 7
  %26 = shl i32 %24, %25
  %27 = lshr i32 %26, 28
  %28 = add i32 %17, 4
  %29 = tail call i32 @llvm.umin.i32(i32 %6, i32 %28)
  store i32 %29, ptr %3, align 8, !tbaa !12
  %30 = add nuw nsw i32 %27, 7
  %31 = icmp eq i32 %30, 21
  br i1 %31, label %32, label %.thread

32:                                               ; preds = %19
  %33 = getelementptr inbounds nuw i8, ptr %0, i64 472
  %34 = load ptr, ptr %33, align 8, !tbaa !53
  tail call void (ptr, i32, ptr, ...) @av_log(ptr noundef %34, i32 noundef 16, ptr noundef nonnull @.str.38) #11
  br label %41

.thread:                                          ; preds = %2, %19
  %.012 = phi i32 [ %30, %19 ], [ %15, %2 ]
  %35 = trunc nuw nsw i32 %.012 to i8
  %36 = getelementptr inbounds nuw i8, ptr %0, i64 10640
  store i8 %35, ptr %36, align 8, !tbaa !127
  %37 = zext nneg i32 %.012 to i64
  %38 = getelementptr inbounds nuw [23 x i16], ptr @ff_vc1_bfraction_lut, i64 0, i64 %37
  %39 = load i16, ptr %38, align 2, !tbaa !128
  %40 = getelementptr inbounds nuw i8, ptr %0, i64 6938
  store i16 %39, ptr %40, align 2, !tbaa !129
  br label %41

41:                                               ; preds = %.thread, %32
  %.09 = phi i32 [ -1094995529, %32 ], [ 0, %.thread ]
  ret i32 %.09
}